; Function Attrs: nofree norecurse nosync nounwind memory(read, argmem: readwrite, inaccessiblemem: none) uwtable
define dso_local range(i32 -1, -2147483648) i32 @fdt_first_subnode(ptr noundef captures(address) %0, i32 noundef %1) local_unnamed_addr #3 {
  %3 = alloca i32, align 4
  %4 = alloca i32, align 4
  call void @llvm.lifetime.start.p0(i64 4, ptr nonnull %4) #10
  %5 = icmp sgt i32 %1, -1
  br i1 %5, label %6, label %.split.i.preheader

6:                                                ; preds = %2
  call void @llvm.lifetime.start.p0(i64 4, ptr nonnull %3)
  %7 = and i32 %1, 3
  %or.cond.i.i = icmp eq i32 %7, 0
  br i1 %or.cond.i.i, label %8, label %fdt_check_node_offset_.exit.thread.i

8:                                                ; preds = %6
  %9 = call i32 @fdt_next_tag(ptr noundef %0, i32 noundef %1, ptr noundef nonnull %3)
  %.not2.i.i = icmp eq i32 %9, 1
  br i1 %.not2.i.i, label %fdt_check_node_offset_.exit.i, label %fdt_check_node_offset_.exit.thread.i

fdt_check_node_offset_.exit.thread.i:             ; preds = %8, %6
  call void @llvm.lifetime.end.p0(i64 4, ptr nonnull %3)
  br label %fdt_next_node.exit

fdt_check_node_offset_.exit.i:                    ; preds = %8
  %10 = load i32, ptr %3, align 4
  call void @llvm.lifetime.end.p0(i64 4, ptr nonnull %3)
  %11 = icmp slt i32 %10, 0
  br i1 %11, label %fdt_next_node.exit, label %.split.i.preheader

.split.i.preheader:                               ; preds = %fdt_check_node_offset_.exit.i, %2
  %.ph = phi i32 [ 0, %2 ], [ %10, %fdt_check_node_offset_.exit.i ]
  br label %.split.i

.split.i:                                         ; preds = %.split.i.preheader, %.backedge.i
  %12 = phi i32 [ %.pre.i, %.backedge.i ], [ %.ph, %.split.i.preheader ]
  %13 = call i32 @fdt_next_tag(ptr noundef %0, i32 noundef %12, ptr noundef nonnull %4)
  switch i32 %13, label %.backedge.i [
    i32 9, label %.split25.us.i
    i32 2, label %14
    i32 1, label %fdt_next_node.exit
  ]

.backedge.i:                                      ; preds = %.split.i
  %.pre.i = load i32, ptr %4, align 4
  br label %.split.i, !llvm.loop !6

14:                                               ; preds = %.split.i
  %15 = load i32, ptr %4, align 4
  br label %fdt_next_node.exit

.split25.us.i:                                    ; preds = %.split.i
  %16 = load i32, ptr %4, align 4
  %spec.select = tail call i32 @llvm.smin.i32(i32 %16, i32 -1)
  br label %fdt_next_node.exit

fdt_next_node.exit:                               ; preds = %.split.i, %.split25.us.i, %fdt_check_node_offset_.exit.thread.i, %fdt_check_node_offset_.exit.i, %14
  %17 = phi i1 [ true, %fdt_check_node_offset_.exit.i ], [ true, %14 ], [ true, %fdt_check_node_offset_.exit.thread.i ], [ true, %.split25.us.i ], [ false, %.split.i ]
  %.0.i = phi i32 [ %10, %fdt_check_node_offset_.exit.i ], [ %15, %14 ], [ -4, %fdt_check_node_offset_.exit.thread.i ], [ %spec.select, %.split25.us.i ], [ %12, %.split.i ]
  call void @llvm.lifetime.end.p0(i64 4, ptr nonnull %4) #10
  %18 = icmp slt i32 %.0.i, 0
  %or.cond = or i1 %18, %17
  %. = select i1 %or.cond, i32 -1, i32 %.0.i
  ret i32 %.
}